Certificate:
    Data:
        Version: 3 (0x2)
        Serial Number:
            30:ab:c3:d5:92:2a:28:dd:df:04:56:75:20:44:93:1d:11:d3:dc:69
        Signature Algorithm: sha256WithRSAEncryption
        Issuer: C=GB, ST=Suffolk, L=Ipswich, O=Security, OU=team1, CN=rootcert
        Validity
            Not Before: Jan 30 14:55:35 2020 GMT
            Not After : Jun 13 14:55:35 2021 GMT
        Subject: C=GB, ST=Suffolk, L=Ipswich, O=Security, OU=team1, CN=inter
        Subject Public Key Info:
            Public Key Algorithm: rsaEncryption
                RSA Public-Key: (2048 bit)
                Modulus:
                    00:a1:d6:f8:e4:4f:c2:8a:6b:34:a8:e3:90:be:2e:
                    0d:3d:31:bf:91:bc:20:d3:f8:83:16:25:77:b4:5f:
                    fd:27:6e:83:0c:e8:c4:fc:53:e9:28:88:c6:6f:48:
                    2b:34:28:04:c3:15:1a:82:9d:eb:a0:a1:d4:8b:05:
                    3e:e9:4d:f1:f0:9a:25:1c:e1:e0:e0:53:87:d8:cd:
                    ce:38:11:ec:a6:34:53:b4:ea:45:8a:f9:ae:90:00:
                    a9:13:46:04:fc:a8:a5:8e:9c:54:a7:7f:d9:2c:94:
                    18:ea:8a:52:b9:49:dc:87:03:cd:c7:df:9a:c8:86:
                    37:7d:2d:78:98:b9:04:da:b1:42:93:e7:64:58:0a:
                    a0:92:68:5f:bb:01:8a:63:ed:23:b3:38:77:4a:62:
                    4f:79:15:21:cf:0a:0f:5f:c1:ab:cc:03:e3:04:d9:
                    95:f0:4b:12:c7:de:78:3d:e5:6f:87:f3:78:d2:9e:
                    c2:96:5e:58:56:a9:df:8d:a6:b7:7c:e3:ca:0f:06:
                    1a:12:4a:12:2c:79:2c:7d:70:b7:de:df:e8:72:8e:
                    81:46:16:f7:15:3f:0c:c8:7c:c1:41:da:5d:8d:ea:
                    4e:7b:d5:07:f8:7e:a8:a5:43:53:82:c2:0a:9e:56:
                    bb:d8:2c:20:b0:5f:e6:80:35:8c:81:60:09:61:6f:
                    c7:91
                Exponent: 65537 (0x10001)
        X509v3 extensions:
            X509v3 Basic Constraints: 
                CA:TRUE
            X509v3 Key Usage: 
                Digital Signature, Non Repudiation, Key Encipherment
            X509v3 Subject Key Identifier: 
                CC:6C:BF:53:C4:B5:50:DA:B7:25:E7:5B:0D:96:F9:6B:04:A6:FD:1A
            X509v3 Authority Key Identifier: 
                keyid:99:60:26:0D:9D:81:05:93:E2:C8:AD:08:A2:F5:55:E3:1E:DC:E2:68

    Signature Algorithm: sha256WithRSAEncryption
         09:43:2e:5d:e9:15:18:24:ad:7d:2c:a6:8e:b8:56:ca:6e:9b:
         53:d9:ff:66:32:46:72:05:7b:9c:91:7c:bc:ff:97:93:5f:36:
         54:a0:a4:fd:c7:0d:b4:29:31:9c:ea:71:16:3c:b9:04:e9:ad:
         bc:66:4b:08:be:6b:a3:76:05:fc:ae:37:ea:38:69:41:c6:95:
         85:49:de:10:66:88:df:31:71:07:5a:bb:6e:9d:b8:0f:46:e3:
         79:02:b8:6e:14:a6:14:97:a1:4f:6c:ef:2d:8a:33:28:23:47:
         19:8d:7a:7f:6f:8d:a9:e2:2f:b6:c0:4e:ef:eb:e8:b9:9c:f7:
         d5:41:e2:67:01:90:25:0b:f7:23:88:4a:e1:a7:d0:52:31:42:
         1c:2c:ed:36:4d:91:dd:50:be:eb:e6:de:d4:69:ac:bb:9d:df:
         63:50:31:6a:cf:2f:6a:c8:ed:b7:1b:2d:a0:18:6c:a8:e2:00:
         b1:43:23:3b:ee:d4:f3:05:e6:57:c0:1e:66:ed:0c:79:fa:c1:
         fd:1b:40:41:99:e2:f9:d3:98:8e:3a:b9:db:64:5e:e4:af:3a:
         83:b6:97:b0:0d:ca:65:c0:05:dd:2b:7e:8d:1a:6e:f1:d9:09:
         38:97:30:59:a2:59:67:14:79:1d:a8:b2:46:98:da:ff:62:9e:
         fa:c9:5f:fc:2e:83:da:1c:38:77:ad:45:16:3a:f4:48:91:bb:
         a1:90:80:f5:9f:b3:2c:ce:28:d4:a5:66:ca:fd:c0:21:9c:9e:
         f3:11:56:36:87:2f:a3:31:2a:b3:10:8a:ed:f6:98:76:84:c2:
         2e:97:84:43:3f:93:0d:1b:04:0f:67:90:2f:fd:39:73:54:8f:
         76:00:fa:90:73:e1:17:9a:30:c3:1a:93:2e:af:3f:69:28:76:
         fb:bd:00:37:34:46:c4:f9:67:05:3f:98:2b:f5:70:78:7e:ea:
         2a:89:e8:36:2f:44:ae:72:d2:bf:bd:a1:81:80:c1:e8:bd:63:
         53:88:a7:df:b7:c8:b1:37:c1:a4:24:24:ba:e1:4a:c8:ec:21:
         93:da:c6:94:cd:c4:aa:d2:24:f3:a4:39:5d:6a:8a:54:f9:f0:
         37:ac:40:66:99:e4:e5:04:02:93:b2:03:a8:8f:b4:da:17:bb:
         ff:78:7b:d5:fc:56:d0:58:9d:fe:0b:34:e5:ef:22:da:d6:7d:
         7c:d5:5b:17:75:2d:eb:ee:6b:ff:0d:0d:3a:d6:94:b0:5f:f1:
         51:51:a9:bf:8e:3c:c5:f3:06:05:7e:bd:17:f8:d5:e7:9e:e1:
         d1:f3:af:3a:2b:aa:06:f3:4e:ed:c8:5b:05:0f:c4:f9:6b:98:
         5a:7c:e2:6a:cd:04:94:9d
-----BEGIN CERTIFICATE-----
MIIEtjCCAp6gAwIBAgIUMKvD1ZIqKN3fBFZ1IESTHRHT3GkwDQYJKoZIhvcNAQEL
BQAwZzELMAkGA1UEBhMCR0IxEDAOBgNVBAgMB1N1ZmZvbGsxEDAOBgNVBAcMB0lw
c3dpY2gxETAPBgNVBAoMCFNlY3VyaXR5MQ4wDAYDVQQLDAV0ZWFtMTERMA8GA1UE
AwwIcm9vdGNlcnQwHhcNMjAwMTMwMTQ1NTM1WhcNMjEwNjEzMTQ1NTM1WjBkMQsw
CQYDVQQGEwJHQjEQMA4GA1UECAwHU3VmZm9sazEQMA4GA1UEBwwHSXBzd2ljaDER
MA8GA1UECgwIU2VjdXJpdHkxDjAMBgNVBAsMBXRlYW0xMQ4wDAYDVQQDDAVpbnRl
cjCCASIwDQYJKoZIhvcNAQEBBQADggEPADCCAQoCggEBAKHW+ORPwoprNKjjkL4u
DT0xv5G8INP4gxYld7Rf/SdugwzoxPxT6SiIxm9IKzQoBMMVGoKd66Ch1IsFPulN
8fCaJRzh4OBTh9jNzjgR7KY0U7TqRYr5rpAAqRNGBPyopY6cVKd/2SyUGOqKUrlJ
3IcDzcffmsiGN30teJi5BNqxQpPnZFgKoJJoX7sBimPtI7M4d0piT3kVIc8KD1/B
q8wD4wTZlfBLEsfeeD3lb4fzeNKewpZeWFap342mt3zjyg8GGhJKEix5LH1wt97f
6HKOgUYW9xU/DMh8wUHaXY3qTnvVB/h+qKVDU4LCCp5Wu9gsILBf5oA1jIFgCWFv
x5ECAwEAAaNdMFswDAYDVR0TBAUwAwEB/zALBgNVHQ8EBAMCBeAwHQYDVR0OBBYE
FMxsv1PEtVDatyXnWw2W+WsEpv0aMB8GA1UdIwQYMBaAFJlgJg2dgQWT4sitCKL1
VeMe3OJoMA0GCSqGSIb3DQEBCwUAA4ICAQAJQy5d6RUYJK19LKaOuFbKbptT2f9m
MkZyBXuckXy8/5eTXzZUoKT9xw20KTGc6nEWPLkE6a28ZksIvmujdgX8rjfqOGlB
xpWFSd4QZojfMXEHWrtunbgPRuN5ArhuFKYUl6FPbO8tijMoI0cZjXp/b42p4i+2
wE7v6+i5nPfVQeJnAZAlC/cjiErhp9BSMUIcLO02TZHdUL7r5t7Uaay7nd9jUDFq
zy9qyO23Gy2gGGyo4gCxQyM77tTzBeZXwB5m7Qx5+sH9G0BBmeL505iOOrnbZF7k
rzqDtpewDcplwAXdK36NGm7x2Qk4lzBZollnFHkdqLJGmNr/Yp76yV/8LoPaHDh3
rUUWOvRIkbuhkID1n7MszijUpWbK/cAhnJ7zEVY2hy+jMSqzEIrt9ph2hMIul4RD
P5MNGwQPZ5Av/TlzVI92APqQc+EXmjDDGpMurz9pKHb7vQA3NEbE+WcFP5gr9XB4
fuoqieg2L0SuctK/vaGBgMHovWNTiKfft8ixN8GkJCS64UrI7CGT2saUzcSq0iTz
pDldaopU+fA3rEBmmeTlBAKTsgOoj7TaF7v/eHvV/FbQWJ3+CzTl7yLa1n181VsX
dS3r7mv/DQ061pSwX/FRUam/jjzF8wYFfr0X+NXnnuHR8686K6oG807tyFsFD8T5
a5hafOJqzQSUnQ==
-----END CERTIFICATE-----
