Certificate:
    Data:
        Version: 3 (0x2)
        Serial Number:
            4d:62:5d:e3:51:25:8a:ca:05:6d:0a:3c:0f:1b:f5:fc:4f:7f:15:08
        Signature Algorithm: sha256WithRSAEncryption
        Issuer: C=GB, ST=Suffolk, L=Ipswich, O=Security, OU=team1, CN=inter
        Validity
            Not Before: Jan 30 14:55:35 2020 GMT
            Not After : May  9 14:55:35 2020 GMT
        Subject: C=GB, ST=Suffolk, L=Ipswich, O=Security, OU=team1, CN=end
        Subject Public Key Info:
            Public Key Algorithm: rsaEncryption
                RSA Public-Key: (2048 bit)
                Modulus:
                    00:bf:69:a2:45:84:d3:55:ff:db:6f:ca:e4:68:5b:
                    f8:79:20:64:51:41:c7:2c:ed:ab:3f:4e:ce:7d:37:
                    6e:5a:61:29:24:50:2e:03:a3:f6:ca:43:43:53:df:
                    b7:c2:9f:14:ee:85:47:75:fa:0a:c0:bb:54:0e:5a:
                    05:30:48:fd:eb:ff:7e:61:1a:42:e8:77:9e:10:ab:
                    bb:38:0e:56:bb:d0:d6:22:46:3f:e1:f2:32:6c:82:
                    58:2d:3b:23:8f:1c:f7:f3:98:b2:43:04:8d:d8:76:
                    83:4e:dc:81:4b:87:ad:50:28:61:24:81:12:6a:53:
                    12:84:4b:bd:b1:da:1c:81:5e:d6:52:36:0d:e2:7a:
                    61:31:9c:e1:87:7e:dd:aa:5c:25:08:3f:86:d1:ad:
                    55:28:42:63:d3:57:06:5b:9c:6f:5f:92:ca:0d:ab:
                    54:55:b3:c0:7b:08:5d:7b:5d:5e:de:b8:ac:4a:65:
                    7e:93:8c:c6:0d:17:8f:9f:55:85:f1:b6:6e:47:4c:
                    ba:e6:bb:eb:09:10:2a:f7:39:b9:1b:3a:ab:6d:8d:
                    62:3e:7f:c2:3e:68:72:40:1e:a3:c1:4f:bd:d5:00:
                    5e:c9:d0:f4:e8:b2:4f:ab:ff:cc:71:c6:37:79:7e:
                    a5:59:6f:72:5b:d4:91:4a:ce:1f:db:98:af:9b:c6:
                    55:e9
                Exponent: 65537 (0x10001)
        X509v3 extensions:
            X509v3 Basic Constraints: 
                CA:FALSE
            X509v3 Key Usage: 
                Digital Signature, Non Repudiation, Key Encipherment
            X509v3 Subject Key Identifier: 
                C6:23:DF:04:F2:5C:AF:BD:C5:36:A6:29:12:38:9B:1E:BC:64:9E:E5
            X509v3 Authority Key Identifier: 
                keyid:CC:6C:BF:53:C4:B5:50:DA:B7:25:E7:5B:0D:96:F9:6B:04:A6:FD:1A

    Signature Algorithm: sha256WithRSAEncryption
         73:a4:21:c6:65:85:f6:da:de:b9:f7:bc:54:2b:35:35:27:6a:
         ba:da:99:01:2b:29:9c:f6:6d:49:71:1e:69:ce:71:3e:15:2d:
         17:2c:90:cc:ab:62:45:fc:69:4b:bd:bf:ae:dd:c7:a4:32:27:
         29:a9:83:f4:ac:f4:bc:20:8e:16:5b:c3:9d:b3:f2:5f:63:46:
         a0:db:2a:3f:24:98:71:4b:36:f9:3b:a1:b8:8d:c1:ef:42:81:
         d6:2c:fe:b5:74:7a:34:e8:09:62:09:11:5b:54:d2:5e:c3:af:
         25:64:c3:5d:9a:4d:17:6e:61:8c:c8:3c:8f:92:4b:6f:c7:3b:
         80:03:2d:dc:d9:54:ea:9e:30:34:1e:6a:6d:03:22:74:02:58:
         72:ad:ab:0b:fe:4e:1f:fc:de:1a:a2:05:2d:f7:ca:b0:8c:ee:
         3d:bb:24:cd:aa:68:37:ba:74:bb:c1:67:88:30:26:36:0f:2d:
         88:05:e6:e9:91:3c:46:c8:ea:d8:cb:05:5a:bc:62:28:96:72:
         9c:fb:00:00:b6:20:d4:04:1e:c6:37:49:cf:a8:82:72:bb:29:
         d6:dc:84:c7:b8:3d:37:09:1b:dc:dc:47:a9:36:bb:1e:06:b7:
         7e:c9:c1:c3:29:79:ed:63:eb:53:91:21:dc:2d:76:ad:c4:c4:
         b2:a9:31:5b
-----BEGIN CERTIFICATE-----
MIIDrjCCApagAwIBAgIUTWJd41ElisoFbQo8Dxv1/E9/FQgwDQYJKoZIhvcNAQEL
BQAwZDELMAkGA1UEBhMCR0IxEDAOBgNVBAgMB1N1ZmZvbGsxEDAOBgNVBAcMB0lw
c3dpY2gxETAPBgNVBAoMCFNlY3VyaXR5MQ4wDAYDVQQLDAV0ZWFtMTEOMAwGA1UE
AwwFaW50ZXIwHhcNMjAwMTMwMTQ1NTM1WhcNMjAwNTA5MTQ1NTM1WjBiMQswCQYD
VQQGEwJHQjEQMA4GA1UECAwHU3VmZm9sazEQMA4GA1UEBwwHSXBzd2ljaDERMA8G
A1UECgwIU2VjdXJpdHkxDjAMBgNVBAsMBXRlYW0xMQwwCgYDVQQDDANlbmQwggEi
MA0GCSqGSIb3DQEBAQUAA4IBDwAwggEKAoIBAQC/aaJFhNNV/9tvyuRoW/h5IGRR
Qccs7as/Ts59N25aYSkkUC4Do/bKQ0NT37fCnxTuhUd1+grAu1QOWgUwSP3r/35h
GkLod54Qq7s4Dla70NYiRj/h8jJsglgtOyOPHPfzmLJDBI3YdoNO3IFLh61QKGEk
gRJqUxKES72x2hyBXtZSNg3iemExnOGHft2qXCUIP4bRrVUoQmPTVwZbnG9fksoN
q1RVs8B7CF17XV7euKxKZX6TjMYNF4+fVYXxtm5HTLrmu+sJECr3ObkbOqttjWI+
f8I+aHJAHqPBT73VAF7J0PTosk+r/8xxxjd5fqVZb3Jb1JFKzh/bmK+bxlXpAgMB
AAGjWjBYMAkGA1UdEwQCMAAwCwYDVR0PBAQDAgXgMB0GA1UdDgQWBBTGI98E8lyv
vcU2pikSOJsevGSe5TAfBgNVHSMEGDAWgBTMbL9TxLVQ2rcl51sNlvlrBKb9GjAN
BgkqhkiG9w0BAQsFAAOCAQEAc6QhxmWF9treufe8VCs1NSdqutqZASspnPZtSXEe
ac5xPhUtFyyQzKtiRfxpS72/rt3HpDInKamD9Kz0vCCOFlvDnbPyX2NGoNsqPySY
cUs2+TuhuI3B70KB1iz+tXR6NOgJYgkRW1TSXsOvJWTDXZpNF25hjMg8j5JLb8c7
gAMt3NlU6p4wNB5qbQMidAJYcq2rC/5OH/zeGqIFLffKsIzuPbskzapoN7p0u8Fn
iDAmNg8tiAXm6ZE8Rsjq2MsFWrxiKJZynPsAALYg1AQexjdJz6iCcrsp1tyEx7g9
Nwkb3NxHqTa7Hga3fsnBwyl57WPrU5Eh3C12rcTEsqkxWw==
-----END CERTIFICATE-----
