Certificate:
    Data:
        Version: 3 (0x2)
        Serial Number:
            46:fd:7f:9c:eb:88:2e:a8:ee:0d:60:70:19:ac:9a:6d:ff:8e:db:bb
        Signature Algorithm: sha256WithRSAEncryption
        Issuer: C=GB, ST=Suffolk, L=Ipswich, O=Company, OU=test, CN=root
        Validity
            Not Before: Feb  4 17:37:51 2020 GMT
            Not After : Jun 18 17:37:51 2021 GMT
        Subject: C=GB, ST=Suffolk, L=Ipswich, O=Security, OU=team1, CN=inter
        Subject Public Key Info:
            Public Key Algorithm: rsaEncryption
                RSA Public-Key: (2048 bit)
                Modulus:
                    00:cb:a7:0a:2c:da:b4:88:16:b2:07:9e:11:fb:49:
                    ae:01:ee:90:54:f7:a0:95:1f:c7:52:32:95:14:9e:
                    76:32:2d:03:76:1d:95:d4:9a:a3:2e:b7:d5:d2:d9:
                    5d:ed:5d:a7:00:d3:cd:68:47:a2:47:25:ef:e6:64:
                    a3:b0:13:9c:a5:ff:42:44:e7:32:2f:f6:c5:a8:36:
                    7a:23:8a:e1:3e:4f:ee:a5:4d:aa:c5:f7:c5:be:24:
                    3d:14:6b:6c:a1:8b:de:00:8a:22:6f:59:17:47:7e:
                    ca:b3:1a:3e:2b:d5:7d:83:1f:a2:94:c5:66:b6:f6:
                    c9:25:27:9d:d9:54:0b:27:10:fc:5d:b3:15:cf:da:
                    80:a6:db:21:f2:b1:04:2b:ee:61:bb:75:ec:f3:32:
                    c5:86:af:ec:98:72:41:ed:85:d8:ec:e5:3c:50:76:
                    0e:df:3f:f3:ae:fd:7d:01:e7:cf:2a:91:34:30:4a:
                    3d:e5:90:e3:2f:c2:ce:e8:05:6b:9f:ee:2d:80:99:
                    bf:8a:55:be:31:a3:1e:b3:dd:df:4e:65:7e:1d:95:
                    72:6e:7d:49:d6:98:cd:11:88:c7:31:35:63:c2:77:
                    68:5e:bb:d0:c9:6a:2c:46:c3:e5:5e:4d:56:59:82:
                    7c:31:91:cc:fd:e0:da:cc:68:b5:5b:ce:9d:83:40:
                    78:69
                Exponent: 65537 (0x10001)
        X509v3 extensions:
            X509v3 Basic Constraints: 
                CA:TRUE
            X509v3 Key Usage: 
                Digital Signature, Non Repudiation, Key Encipherment
            X509v3 Subject Key Identifier: 
                61:B3:D2:02:68:56:C8:57:EB:54:0B:8E:FC:07:E2:9C:36:2B:46:AD
            X509v3 Authority Key Identifier: 
                keyid:A9:FB:08:FD:00:E7:AE:BC:67:79:19:8D:8C:B8:3C:FD:81:3D:F1:EF

    Signature Algorithm: sha256WithRSAEncryption
         58:a2:f3:08:a4:2d:bc:53:aa:76:3d:62:79:9a:d0:66:b8:08:
         b9:7b:00:b2:00:6b:01:75:98:98:14:1e:cb:0e:08:09:99:0b:
         ae:fe:b6:4e:0f:74:57:b5:61:02:1e:bb:6f:f0:3b:fb:0d:c9:
         7d:97:2f:fc:2b:fc:f3:2f:dc:a7:4c:4f:87:41:56:28:db:56:
         e9:03:9c:fc:67:db:76:1c:e4:8e:5b:07:8e:f3:45:16:bc:64:
         bf:23:51:cb:c0:e7:b8:52:4a:11:8e:ed:73:e7:3b:ee:a7:1b:
         63:6e:f7:ba:3a:70:15:99:4d:8f:8e:50:14:66:95:c9:7b:8e:
         0e:be:36:5d:71:8e:74:86:25:41:d1:4c:6c:86:95:ea:7e:1f:
         98:e9:ee:48:79:50:10:0b:a2:43:c5:40:2d:fc:2d:12:a3:3f:
         41:de:cb:69:a5:36:c1:a0:2c:e8:e0:dc:b0:7b:61:26:ba:c4:
         d5:01:b3:52:79:09:b4:ea:23:29:e1:ae:78:ce:eb:89:74:ac:
         9e:80:d9:f1:ef:99:f3:52:b2:05:ee:09:74:6d:38:2d:a6:ee:
         6a:9a:2d:c2:28:8b:52:76:ad:9c:0b:50:b4:5b:a9:6b:6d:d6:
         2f:c7:40:35:78:b9:9f:fe:fd:75:57:a4:19:4c:43:61:ca:d3:
         d4:f6:93:a0:41:55:f9:1c:3d:39:09:15:c4:6d:df:8a:79:ff:
         03:5b:d7:44:e9:7c:a0:c0:af:1b:ff:2f:0c:fb:39:2c:62:e7:
         ee:f9:dc:59:18:c4:3a:2a:f3:d3:d9:45:dc:d1:30:74:2a:83:
         22:5c:d3:5a:0e:7c:6a:53:ea:22:a8:6f:97:d2:a2:73:93:dc:
         6f:35:69:6b:aa:c0:d0:f1:69:ea:ca:16:16:ed:84:de:1d:eb:
         10:8b:61:a5:9c:5f:aa:ff:3d:21:08:4d:bb:d7:61:f1:0b:ce:
         13:76:20:6e:58:a6:26:3e:13:8e:b1:ab:6b:e3:d0:68:01:46:
         86:13:34:eb:2f:90:1f:c0:c9:d0:9f:99:bd:4a:a2:04:d8:30:
         14:e1:c2:0a:09:1d:4c:19:86:1b:6c:30:43:44:49:fd:59:ac:
         b3:34:45:c7:fa:31:63:91:08:5c:fd:0e:ab:6a:0e:e1:2e:b6:
         98:88:d1:05:e3:72:68:f7:50:92:0a:92:b2:ea:c3:6a:89:fb:
         1b:67:fa:d1:ab:50:1a:3e:58:b9:85:d4:47:52:3d:1b:e2:02:
         ec:cd:48:ba:11:1f:ad:90:da:49:d7:56:ca:cf:d5:54:39:8c:
         48:0b:7b:f5:1d:a1:9d:1d:59:51:70:ed:71:01:ea:0e:4b:a7:
         33:9e:6c:0a:53:69:09:4d
-----BEGIN CERTIFICATE-----
MIIEsDCCApigAwIBAgIURv1/nOuILqjuDWBwGayabf+O27swDQYJKoZIhvcNAQEL
BQAwYTELMAkGA1UEBhMCR0IxEDAOBgNVBAgMB1N1ZmZvbGsxEDAOBgNVBAcMB0lw
c3dpY2gxEDAOBgNVBAoMB0NvbXBhbnkxDTALBgNVBAsMBHRlc3QxDTALBgNVBAMM
BHJvb3QwHhcNMjAwMjA0MTczNzUxWhcNMjEwNjE4MTczNzUxWjBkMQswCQYDVQQG
EwJHQjEQMA4GA1UECAwHU3VmZm9sazEQMA4GA1UEBwwHSXBzd2ljaDERMA8GA1UE
CgwIU2VjdXJpdHkxDjAMBgNVBAsMBXRlYW0xMQ4wDAYDVQQDDAVpbnRlcjCCASIw
DQYJKoZIhvcNAQEBBQADggEPADCCAQoCggEBAMunCizatIgWsgeeEftJrgHukFT3
oJUfx1IylRSedjItA3YdldSaoy631dLZXe1dpwDTzWhHokcl7+Zko7ATnKX/QkTn
Mi/2xag2eiOK4T5P7qVNqsX3xb4kPRRrbKGL3gCKIm9ZF0d+yrMaPivVfYMfopTF
Zrb2ySUnndlUCycQ/F2zFc/agKbbIfKxBCvuYbt17PMyxYav7JhyQe2F2OzlPFB2
Dt8/8679fQHnzyqRNDBKPeWQ4y/CzugFa5/uLYCZv4pVvjGjHrPd305lfh2Vcm59
SdaYzRGIxzE1Y8J3aF670MlqLEbD5V5NVlmCfDGRzP3g2sxotVvOnYNAeGkCAwEA
AaNdMFswDAYDVR0TBAUwAwEB/zALBgNVHQ8EBAMCBeAwHQYDVR0OBBYEFGGz0gJo
VshX61QLjvwH4pw2K0atMB8GA1UdIwQYMBaAFKn7CP0A5668Z3kZjYy4PP2BPfHv
MA0GCSqGSIb3DQEBCwUAA4ICAQBYovMIpC28U6p2PWJ5mtBmuAi5ewCyAGsBdZiY
FB7LDggJmQuu/rZOD3RXtWECHrtv8Dv7Dcl9ly/8K/zzL9ynTE+HQVYo21bpA5z8
Z9t2HOSOWweO80UWvGS/I1HLwOe4UkoRju1z5zvupxtjbve6OnAVmU2PjlAUZpXJ
e44OvjZdcY50hiVB0UxshpXqfh+Y6e5IeVAQC6JDxUAt/C0Soz9B3stppTbBoCzo
4Nywe2EmusTVAbNSeQm06iMp4a54zuuJdKyegNnx75nzUrIF7gl0bTgtpu5qmi3C
KItSdq2cC1C0W6lrbdYvx0A1eLmf/v11V6QZTENhytPU9pOgQVX5HD05CRXEbd+K
ef8DW9dE6XygwK8b/y8M+zksYufu+dxZGMQ6KvPT2UXc0TB0KoMiXNNaDnxqU+oi
qG+X0qJzk9xvNWlrqsDQ8WnqyhYW7YTeHesQi2GlnF+q/z0hCE2712HxC84TdiBu
WKYmPhOOsatr49BoAUaGEzTrL5AfwMnQn5m9SqIE2DAU4cIKCR1MGYYbbDBDREn9
WayzNEXH+jFjkQhc/Q6rag7hLraYiNEF43Jo91CSCpKy6sNqifsbZ/rRq1AaPli5
hdRHUj0b4gLszUi6ER+tkNpJ11bKz9VUOYxIC3v1HaGdHVlRcO1xAeoOS6cznmwK
U2kJTQ==
-----END CERTIFICATE-----
