Certificate:
    Data:
        Version: 3 (0x2)
        Serial Number:
            0f:51:9f:5c:a6:ab:6b:bb:ef:d1:4e:22:9d:11:bb:54:f4:34:1f:2b
        Signature Algorithm: sha256WithRSAEncryption
        Issuer: C=GB, ST=Suffolk, L=Ipswich, O=Security, OU=team1, CN=inter
        Validity
            Not Before: Feb  4 17:37:58 2020 GMT
            Not After : Feb  3 17:37:58 2021 GMT
        Subject: C=GB, ST=Suffolk, L=Ipswich, O=Security, OU=team1, CN=endentity
        Subject Public Key Info:
            Public Key Algorithm: rsaEncryption
                RSA Public-Key: (2048 bit)
                Modulus:
                    00:a1:f9:c6:da:8f:73:cf:07:70:dc:29:e6:09:80:
                    ea:9d:12:bf:cd:3e:b2:63:43:49:23:4c:41:a7:dd:
                    2c:a1:52:71:0c:4c:0a:44:8f:ad:e8:1e:62:e7:61:
                    b0:58:9e:35:22:a3:e2:5a:2c:57:22:ea:84:f4:26:
                    71:37:1c:a3:4b:88:18:8a:49:6b:37:61:76:f7:6d:
                    ef:c2:6c:75:4b:c0:ec:44:f6:14:e1:7d:21:ab:c9:
                    42:63:fa:22:1f:65:d7:fd:94:ed:19:b2:08:12:73:
                    49:70:0f:e4:a5:24:23:7f:f2:db:aa:b8:4a:af:80:
                    15:34:57:e7:63:4a:9b:48:1e:9c:bd:6f:71:95:9e:
                    d9:d9:a9:14:df:8e:1c:39:f9:4e:c3:6b:65:9a:dd:
                    1a:d1:08:b0:ae:ba:85:00:33:11:31:56:16:92:f1:
                    3b:3c:67:29:50:61:d6:95:95:51:db:0b:9e:fc:b3:
                    f9:19:56:99:d1:6b:09:ac:04:05:83:fc:45:ba:53:
                    4f:7e:d7:79:ab:7f:4b:e1:2a:75:e5:02:5b:69:ec:
                    36:91:4d:88:ed:c6:30:e6:bf:5c:e2:d3:22:0b:1d:
                    4a:71:bd:33:a7:32:c6:40:05:e0:18:96:10:6d:ca:
                    68:3f:c2:13:78:c2:5b:18:79:82:af:cf:6a:a5:5a:
                    c4:45
                Exponent: 65537 (0x10001)
        X509v3 extensions:
            X509v3 Basic Constraints: 
                CA:FALSE
            X509v3 Key Usage: 
                Digital Signature, Non Repudiation, Key Encipherment
            X509v3 Subject Key Identifier: 
                11:FA:EF:71:9B:82:15:05:F0:D5:AB:D6:4B:38:98:2F:5D:B0:EF:CC
            X509v3 Authority Key Identifier: 
                keyid:61:B3:D2:02:68:56:C8:57:EB:54:0B:8E:FC:07:E2:9C:36:2B:46:AD

    Signature Algorithm: sha256WithRSAEncryption
         9e:5e:2c:7c:79:a5:6c:22:6e:c9:7f:5f:b0:0b:f6:86:90:ce:
         20:c9:6f:aa:92:60:e9:05:35:35:d1:78:b2:21:4a:63:69:01:
         3b:85:e8:b4:d3:ae:ef:f9:a5:5f:28:98:1c:2d:21:6e:05:43:
         15:d9:2e:7a:1c:66:7f:1b:c2:1e:7b:82:6b:09:cc:4a:c7:20:
         d4:d6:08:07:db:f0:81:2f:c1:0b:dd:4a:41:0c:19:57:ba:a8:
         93:46:5a:1d:03:e7:fd:ec:57:f3:06:ea:26:c4:9e:21:88:47:
         e6:0e:79:41:03:5b:27:62:3e:6a:aa:2a:db:07:8e:7a:c5:5a:
         53:a6:a3:a3:e7:b7:12:d4:d2:56:51:e8:ce:a5:5a:44:e2:f8:
         95:1d:af:41:ef:f1:05:b8:90:ee:35:de:1c:73:0e:cd:e8:df:
         27:1a:8f:7d:b4:ae:08:55:fb:4e:41:20:35:38:76:41:c9:56:
         dd:3f:a9:e1:d5:f4:15:73:7a:67:11:d3:40:54:85:57:ea:26:
         ad:87:6c:a6:d9:3f:50:9b:23:50:f4:41:bd:c6:35:45:70:96:
         af:66:af:de:f5:75:ff:8e:f9:98:8f:77:4a:ab:0c:5c:f5:42:
         89:e1:35:f1:e5:ac:62:60:53:ce:b1:16:7a:37:9e:33:6d:cc:
         22:85:18:a6
-----BEGIN CERTIFICATE-----
MIIDtDCCApygAwIBAgIUD1GfXKara7vv0U4inRG7VPQ0HyswDQYJKoZIhvcNAQEL
BQAwZDELMAkGA1UEBhMCR0IxEDAOBgNVBAgMB1N1ZmZvbGsxEDAOBgNVBAcMB0lw
c3dpY2gxETAPBgNVBAoMCFNlY3VyaXR5MQ4wDAYDVQQLDAV0ZWFtMTEOMAwGA1UE
AwwFaW50ZXIwHhcNMjAwMjA0MTczNzU4WhcNMjEwMjAzMTczNzU4WjBoMQswCQYD
VQQGEwJHQjEQMA4GA1UECAwHU3VmZm9sazEQMA4GA1UEBwwHSXBzd2ljaDERMA8G
A1UECgwIU2VjdXJpdHkxDjAMBgNVBAsMBXRlYW0xMRIwEAYDVQQDDAllbmRlbnRp
dHkwggEiMA0GCSqGSIb3DQEBAQUAA4IBDwAwggEKAoIBAQCh+cbaj3PPB3DcKeYJ
gOqdEr/NPrJjQ0kjTEGn3SyhUnEMTApEj63oHmLnYbBYnjUio+JaLFci6oT0JnE3
HKNLiBiKSWs3YXb3be/CbHVLwOxE9hThfSGryUJj+iIfZdf9lO0ZsggSc0lwD+Sl
JCN/8tuquEqvgBU0V+djSptIHpy9b3GVntnZqRTfjhw5+U7Da2Wa3RrRCLCuuoUA
MxExVhaS8Ts8ZylQYdaVlVHbC578s/kZVpnRawmsBAWD/EW6U09+13mrf0vhKnXl
Altp7DaRTYjtxjDmv1zi0yILHUpxvTOnMsZABeAYlhBtymg/whN4wlsYeYKvz2ql
WsRFAgMBAAGjWjBYMAkGA1UdEwQCMAAwCwYDVR0PBAQDAgXgMB0GA1UdDgQWBBQR
+u9xm4IVBfDVq9ZLOJgvXbDvzDAfBgNVHSMEGDAWgBRhs9ICaFbIV+tUC478B+Kc
NitGrTANBgkqhkiG9w0BAQsFAAOCAQEAnl4sfHmlbCJuyX9fsAv2hpDOIMlvqpJg
6QU1NdF4siFKY2kBO4XotNOu7/mlXyiYHC0hbgVDFdkuehxmfxvCHnuCawnMSscg
1NYIB9vwgS/BC91KQQwZV7qok0ZaHQPn/exX8wbqJsSeIYhH5g55QQNbJ2I+aqoq
2weOesVaU6ajo+e3EtTSVlHozqVaROL4lR2vQe/xBbiQ7jXeHHMOzejfJxqPfbSu
CFX7TkEgNTh2QclW3T+p4dX0FXN6ZxHTQFSFV+omrYdsptk/UJsjUPRBvcY1RXCW
r2av3vV1/475mI93SqsMXPVCieE18eWsYmBTzrEWejeeM23MIoUYpg==
-----END CERTIFICATE-----
